(dp0
S'./9/0554929.xml'
p1
S'0907'
p2
sS'./9/0555503.xml'
p3
S'0910'
p4
sS'./9/0558889.xml'
p5
S'0926'
p6
sS'./9/0554666.xml'
p7
S'0906'
p8
sS'./9/0555675.xml'
p9
S'0911'
p10
sS'./9/0555049.xml'
p11
S'0907'
p12
sS'./9/0558657.xml'
p13
S'0925'
p14
sS'./9/0555994.xml'
p15
S'0913'
p16
sS'./9/0557134.xml'
p17
S'0918'
p18
sS'./9/0558188.xml'
p19
S'0922'
p20
sS'./9/0553796.xml'
p21
S'0901'
p22
sS'./9/0559704.xml'
p23
S'0929'
p24
sS'./9/0557774.xml'
p25
S'0920'
p26
sS'./9/0558305.xml'
p27
S'0923'
p28
sS'./9/0558315.xml'
p29
S'0923'
p30
sS'./9/0556622.xml'
p31
S'0915'
p32
sS'./9/0557327.xml'
p33
S'0919'
p34
sS'./9/0555297.xml'
p35
S'0909'
p36
sS'./9/0558628.xml'
p37
S'0924'
p38
sS'./9/0559781.xml'
p39
S'0930'
p40
sS'./9/0557987.xml'
p41
S'0921'
p42
sS'./9/0558882.xml'
p43
S'0926'
p44
sS'./9/0556427.xml'
p45
S'0914'
p46
sS'./9/0554491.xml'
p47
S'0905'
p48
sS'./9/0558907.xml'
p49
S'0926'
p50
sS'./9/0554363.xml'
p51
S'0904'
p52
sS'./9/0559909.xml'
p53
S'0930'
p54
sS'./9/0553782.xml'
p55
S'0901'
p56
sS'./9/0556737.xml'
p57
S'0916'
p58
sS'./9/0558139.xml'
p59
S'0922'
p60
sS'./9/0555955.xml'
p61
S'0913'
p62
sS'./9/0559592.xml'
p63
S'0929'
p64
sS'./9/0555286.xml'
p65
S'0909'
p66
sS'./9/0559705.xml'
p67
S'0929'
p68
sS'./9/0557401.xml'
p69
S'0919'
p70
sS'./9/0558313.xml'
p71
S'0923'
p72
sS'./9/0555038.xml'
p73
S'0907'
p74
sS'./9/0554629.xml'
p75
S'0906'
p76
sS'./9/0557907.xml'
p77
S'0921'
p78
sS'./9/0555706.xml'
p79
S'0911'
p80
sS'./9/0556847.xml'
p81
S'0916'
p82
sS'./9/0557403.xml'
p83
S'0919'
p84
sS'./9/0555720.xml'
p85
S'0911'
p86
sS'./9/0556562.xml'
p87
S'0915'
p88
sS'./9/0558820.xml'
p89
S'0925'
p90
sS'./9/0558667.xml'
p91
S'0925'
p92
sS'./9/0556960.xml'
p93
S'0917'
p94
sS'./9/0559337.xml'
p95
S'0927'
p96
sS'./9/0553957.xml'
p97
S'0902'
p98
sS'./9/0556505.xml'
p99
S'0915'
p100
sS'./9/0556894.xml'
p101
S'0917'
p102
sS'./9/0558154.xml'
p103
S'0922'
p104
sS'./9/0555742.xml'
p105
S'0911'
p106
sS'./9/0558885.xml'
p107
S'0926'
p108
sS'./9/0558633.xml'
p109
S'0924'
p110
sS'./9/0558727.xml'
p111
S'0925'
p112
sS'./9/0557338.xml'
p113
S'0919'
p114
sS'./9/0556883.xml'
p115
S'0917'
p116
sS'./9/0556439.xml'
p117
S'0914'
p118
sS'./9/0555776.xml'
p119
S'0912'
p120
sS'./9/0559076.xml'
p121
S'0927'
p122
sS'./9/0555530.xml'
p123
S'0910'
p124
sS'./9/0556943.xml'
p125
S'0917'
p126
sS'./9/0555387.xml'
p127
S'0910'
p128
sS'./9/0557676.xml'
p129
S'0920'
p130
sS'./9/0556623.xml'
p131
S'0915'
p132
sS'./9/0557387.xml'
p133
S'0919'
p134
sS'./9/0558827.xml'
p135
S'0925'
p136
sS'./9/0559234.xml'
p137
S'0927'
p138
sS'./9/0555813.xml'
p139
S'0912'
p140
sS'./9/0555594.xml'
p141
S'0911'
p142
sS'./9/0557650.xml'
p143
S'0920'
p144
sS'./9/0558999.xml'
p145
S'0927'
p146
sS'./9/0554492.xml'
p147
S'0905'
p148
sS'./9/0558159.xml'
p149
S'0922'
p150
sS'./9/0555282.xml'
p151
S'0909'
p152
sS'./9/0558675.xml'
p153
S'0925'
p154
sS'./9/0554883.xml'
p155
S'0906'
p156
sS'./9/0554650.xml'
p157
S'0906'
p158
sS'./9/0554679.xml'
p159
S'0906'
p160
sS'./9/0559414.xml'
p161
S'0928'
p162
sS'./9/0559462.xml'
p163
S'0928'
p164
sS'./9/0554731.xml'
p165
S'0906'
p166
sS'./9/0557695.xml'
p167
S'0920'
p168
sS'./9/0554940.xml'
p169
S'0907'
p170
sS'./9/0558910.xml'
p171
S'0926'
p172
sS'./9/0559086.xml'
p173
S'0927'
p174
sS'./9/0553770.xml'
p175
S'0901'
p176
sS'./9/0557946.xml'
p177
S'0921'
p178
sS'./9/0559657.xml'
p179
S'0929'
p180
sS'./9/0559084.xml'
p181
S'0927'
p182
sS'./9/0556890.xml'
p183
S'0917'
p184
sS'./9/0554930.xml'
p185
S'0907'
p186
sS'./9/0554757.xml'
p187
S'0906'
p188
sS'./9/0556976.xml'
p189
S'0917'
p190
sS'./9/0559747.xml'
p191
S'0930'
p192
sS'./9/0558636.xml'
p193
S'0924'
p194
sS'./9/0553849.xml'
p195
S'0901'
p196
sS'./9/0555496.xml'
p197
S'0910'
p198
sS'./9/0555499.xml'
p199
S'0910'
p200
sS'./9/0557636.xml'
p201
S'0920'
p202
sS'./9/0558937.xml'
p203
S'0926'
p204
sS'./9/0555796.xml'
p205
S'0912'
p206
sS'./9/0558896.xml'
p207
S'0926'
p208
sS'./9/0558421.xml'
p209
S'0924'
p210
sS'./9/0555491.xml'
p211
S'0910'
p212
sS'./9/0557738.xml'
p213
S'0920'
p214
sS'./9/0557787.xml'
p215
S'0920'
p216
sS'./9/0558868.xml'
p217
S'0926'
p218
sS'./9/0556106.xml'
p219
S'0913'
p220
sS'./9/0558715.xml'
p221
S'0925'
p222
sS'./9/0558696.xml'
p223
S'0925'
p224
sS'./9/0554719.xml'
p225
S'0906'
p226
sS'./9/0554732.xml'
p227
S'0906'
p228
sS'./9/0559612.xml'
p229
S'0929'
p230
sS'./9/0556620.xml'
p231
S'0915'
p232
sS'./9/0557145.xml'
p233
S'0918'
p234
sS'./9/0559226.xml'
p235
S'0927'
p236
sS'./9/0557596.xml'
p237
S'0920'
p238
sS'./9/0554072.xml'
p239
S'0903'
p240
sS'./9/0556884.xml'
p241
S'0917'
p242
sS'./9/0554504.xml'
p243
S'0905'
p244
sS'./9/0555242.xml'
p245
S'0909'
p246
sS'./9/0556838.xml'
p247
S'0916'
p248
sS'./9/0559656.xml'
p249
S'0929'
p250
sS'./9/0559660.xml'
p251
S'0929'
p252
sS'./9/0558905.xml'
p253
S'0926'
p254
sS'./9/0559087.xml'
p255
S'0927'
p256
sS'./9/0559417.xml'
p257
S'0928'
p258
sS'./9/0558606.xml'
p259
S'0924'
p260
sS'./9/0554436.xml'
p261
S'0905'
p262
sS'./9/0557977.xml'
p263
S'0921'
p264
sS'./9/0554682.xml'
p265
S'0906'
p266
sS'./9/0554965.xml'
p267
S'0907'
p268
sS'./9/0559688.xml'
p269
S'0929'
p270
sS'./9/0555095.xml'
p271
S'0908'
p272
sS'./9/0559721.xml'
p273
S'0929'
p274
sS'./9/0556356.xml'
p275
S'0914'
p276
sS'./9/0556843.xml'
p277
S'0916'
p278
sS'./9/0559425.xml'
p279
S'0928'
p280
sS'./9/0557939.xml'
p281
S'0921'
p282
sS'./9/0557748.xml'
p283
S'0920'
p284
sS'./9/0557981.xml'
p285
S'0921'
p286
sS'./9/0558314.xml'
p287
S'0923'
p288
sS'./9/0559726.xml'
p289
S'0929'
p290
sS'./9/0556382.xml'
p291
S'0914'
p292
sS'./9/0559908.xml'
p293
S'0930'
p294
sS'./9/0559722.xml'
p295
S'0929'
p296
sS'./9/0554942.xml'
p297
S'0907'
p298
sS'./9/0555180.xml'
p299
S'0908'
p300
sS'./9/0559506.xml'
p301
S'0928'
p302
sS'./9/0558915.xml'
p303
S'0926'
p304
sS'./9/0556880.xml'
p305
S'0917'
p306
sS'./9/0556436.xml'
p307
S'0914'
p308
sS'./9/0557018.xml'
p309
S'0917'
p310
sS'./9/0556845.xml'
p311
S'0916'
p312
sS'./9/0557056.xml'
p313
S'0918'
p314
sS'./9/0558676.xml'
p315
S'0925'
p316
sS'./9/0556887.xml'
p317
S'0917'
p318
sS'./9/0558304.xml'
p319
S'0923'
p320
sS'./9/0555612.xml'
p321
S'0911'
p322
sS'./9/0556081.xml'
p323
S'0913'
p324
sS'./9/0557115.xml'
p325
S'0918'
p326
sS'./9/0557402.xml'
p327
S'0919'
p328
sS'./9/0555523.xml'
p329
S'0910'
p330
sS'./9/0557319.xml'
p331
S'0919'
p332
sS'./9/0554528.xml'
p333
S'0906'
p334
sS'./9/0555697.xml'
p335
S'0911'
p336
sS'./9/0558831.xml'
p337
S'0925'
p338
sS'./9/0559686.xml'
p339
S'0929'
p340
sS'./9/0556013.xml'
p341
S'0913'
p342
sS'./9/0555477.xml'
p343
S'0910'
p344
sS'./9/0557093.xml'
p345
S'0918'
p346
sS'./9/0559162.xml'
p347
S'0927'
p348
sS'./9/0557608.xml'
p349
S'0920'
p350
sS'./9/0559552.xml'
p351
S'0929'
p352
sS'./9/0558677.xml'
p353
S'0925'
p354
sS'./9/0553955.xml'
p355
S'0902'
p356
sS'./9/0559135.xml'
p357
S'0927'
p358
sS'./9/0557828.xml'
p359
S'0920'
p360
sS'./9/0559154.xml'
p361
S'0927'
p362
sS'./9/0558824.xml'
p363
S'0925'
p364
sS'./9/0558199.xml'
p365
S'0922'
p366
sS'./9/0556040.xml'
p367
S'0913'
p368
sS'./9/0559710.xml'
p369
S'0929'
p370
sS'./9/0555104.xml'
p371
S'0908'
p372
sS'./9/0555661.xml'
p373
S'0911'
p374
sS'./9/0559204.xml'
p375
S'0927'
p376
sS'./9/0558631.xml'
p377
S'0924'
p378
sS'./9/0554914.xml'
p379
S'0907'
p380
sS'./9/0559684.xml'
p381
S'0929'
p382
sS'./9/0556795.xml'
p383
S'0916'
p384
sS'./9/0556092.xml'
p385
S'0913'
p386
sS'./9/0555805.xml'
p387
S'0912'
p388
sS'./9/0554664.xml'
p389
S'0906'
p390
sS'./9/0556797.xml'
p391
S'0916'
p392
sS'./9/0557812.xml'
p393
S'0920'
p394
sS'./9/0556431.xml'
p395
S'0914'
p396
sS'./9/0555102.xml'
p397
S'0908'
p398
sS'./9/0556827.xml'
p399
S'0916'
p400
sS'./9/0558580.xml'
p401
S'0924'
p402
sS'./9/0559541.xml'
p403
S'0928'
p404
sS'./9/0555146.xml'
p405
S'0908'
p406
sS'./9/0554933.xml'
p407
S'0907'
p408
sS'./9/0558887.xml'
p409
S'0926'
p410
sS'./9/0557358.xml'
p411
S'0919'
p412
sS'./9/0554060.xml'
p413
S'0903'
p414
sS'./9/0559413.xml'
p415
S'0928'
p416
sS'./9/0558534.xml'
p417
S'0924'
p418
sS'./9/0558894.xml'
p419
S'0926'
p420
sS'./9/0556656.xml'
p421
S'0915'
p422
sS'./9/0553781.xml'
p423
S'0901'
p424
sS'./9/0554499.xml'
p425
S'0905'
p426
sS'./9/0557361.xml'
p427
S'0919'
p428
sS'./9/0556885.xml'
p429
S'0917'
p430
sS'./9/0558346.xml'
p431
S'0923'
p432
sS'./9/0558156.xml'
p433
S'0922'
p434
sS'./9/0558212.xml'
p435
S'0922'
p436
sS'./9/0559912.xml'
p437
S'0930'
p438
sS'./9/0554340.xml'
p439
S'0904'
p440
sS'./9/0556068.xml'
p441
S'0913'
p442
sS'./9/0556055.xml'
p443
S'0913'
p444
sS'./9/0556504.xml'
p445
S'0915'
p446
sS'./9/0558576.xml'
p447
S'0924'
p448
sS'./9/0559752.xml'
p449
S'0930'
p450
sS'./9/0558618.xml'
p451
S'0924'
p452
sS'./9/0556387.xml'
p453
S'0914'
p454
sS'./9/0555077.xml'
p455
S'0908'
p456
sS'./9/0557117.xml'
p457
S'0918'
p458
sS'./9/0557941.xml'
p459
S'0921'
p460
sS'./9/0559892.xml'
p461
S'0930'
p462
sS'./9/0557565.xml'
p463
S'0920'
p464
sS'./9/0555298.xml'
p465
S'0909'
p466
sS'./9/0554351.xml'
p467
S'0904'
p468
sS'./9/0555414.xml'
p469
S'0910'
p470
sS'./9/0555183.xml'
p471
S'0908'
p472
sS'./9/0556826.xml'
p473
S'0916'
p474
sS'./9/0558306.xml'
p475
S'0923'
p476
sS'./9/0554685.xml'
p477
S'0906'
p478
sS'./9/0559412.xml'
p479
S'0928'
p480
sS'./9/0559745.xml'
p481
S'0930'
p482
sS'./9/0555096.xml'
p483
S'0908'
p484
sS'./9/0557802.xml'
p485
S'0920'
p486
sS'./9/0557347.xml'
p487
S'0919'
p488
sS'./9/0555778.xml'
p489
S'0912'
p490
sS'./9/0558647.xml'
p491
S'0925'
p492
sS'./9/0559911.xml'
p493
S'0930'
p494
sS'./9/0557105.xml'
p495
S'0918'
p496
sS'./9/0559434.xml'
p497
S'0928'
p498
sS'./9/0554350.xml'
p499
S'0904'
p500
sS'./9/0557415.xml'
p501
S'0919'
p502
sS'./9/0554932.xml'
p503
S'0907'
p504
sS'./9/0557909.xml'
p505
S'0921'
p506
sS'./9/0558616.xml'
p507
S'0924'
p508
sS'./9/0559741.xml'
p509
S'0930'
p510
sS'./9/0555703.xml'
p511
S'0911'
p512
sS'./9/0559222.xml'
p513
S'0927'
p514
sS'./9/0556352.xml'
p515
S'0914'
p516
sS'./9/0553778.xml'
p517
S'0901'
p518
sS'./9/0556828.xml'
p519
S'0916'
p520
sS'./9/0559423.xml'
p521
S'0928'
p522
sS'./9/0557016.xml'
p523
S'0917'
p524
sS'./9/0559330.xml'
p525
S'0927'
p526
sS'./9/0559254.xml'
p527
S'0927'
p528
sS'./9/0554342.xml'
p529
S'0904'
p530
sS'./9/0556886.xml'
p531
S'0917'
p532
sS'./9/0559690.xml'
p533
S'0929'
p534
sS'./9/0556082.xml'
p535
S'0913'
p536
sS'./9/0555604.xml'
p537
S'0911'
p538
sS'./9/0558653.xml'
p539
S'0925'
p540
sS'./9/0559792.xml'
p541
S'0930'
p542
sS'./9/0557957.xml'
p543
S'0921'
p544
sS'./9/0554917.xml'
p545
S'0907'
p546
sS'./9/0558552.xml'
p547
S'0924'
p548
s.